; Function Attrs: nofree norecurse nosync nounwind memory(read, inaccessiblemem: none) uwtable
define i32 @Gia_ManCountPosWithNonZeroDrivers(ptr noundef readonly captures(none) %0) local_unnamed_addr #14 {
  %2 = getelementptr inbounds nuw i8, ptr %0, i64 72
  %3 = load ptr, ptr %2, align 8
  %4 = getelementptr i8, ptr %3, i64 4
  %.val11 = load i32, ptr %4, align 4
  %5 = icmp sgt i32 %.val11, 0
  br i1 %5, label %.lr.ph, label %.critedge

.lr.ph:                                           ; preds = %1
  %6 = getelementptr i8, ptr %0, i64 32
  %.val12 = load ptr, ptr %6, align 8
  %.not = icmp eq ptr %.val12, null
  br i1 %.not, label %.critedge, label %.lr.ph.split

.lr.ph.split:                                     ; preds = %.lr.ph
  %7 = getelementptr i8, ptr %3, i64 8
  %.val13.val = load ptr, ptr %7, align 8
  %wide.trip.count = zext nneg i32 %.val11 to i64
  br label %8

8:                                                ; preds = %.lr.ph.split, %8
  %indvars.iv = phi i64 [ 0, %.lr.ph.split ], [ %indvars.iv.next, %8 ]
  %.016 = phi i32 [ 0, %.lr.ph.split ], [ %22, %8 ]
  %9 = getelementptr inbounds nuw i32, ptr %.val13.val, i64 %indvars.iv
  %10 = load i32, ptr %9, align 4
  %11 = sext i32 %10 to i64
  %12 = getelementptr inbounds %struct.Gia_Obj_t_, ptr %.val12, i64 %11
  %.val14 = load i64, ptr %12, align 4
  %13 = trunc i64 %.val14 to i32
  %14 = and i32 %13, 536870911
  %15 = sub nsw i32 %10, %14
  %16 = lshr i32 %13, 29
  %17 = and i32 %16, 1
  %18 = shl nsw i32 %15, 1
  %19 = or disjoint i32 %18, %17
  %20 = icmp ne i32 %19, 0
  %21 = zext i1 %20 to i32
  %22 = add nuw nsw i32 %.016, %21
  %indvars.iv.next = add nuw nsw i64 %indvars.iv, 1
  %exitcond.not = icmp eq i64 %indvars.iv.next, %wide.trip.count
  br i1 %exitcond.not, label %.critedge, label %8, !llvm.loop !96

.critedge:                                        ; preds = %8, %.lr.ph, %1
  %.0.lcssa = phi i32 [ 0, %1 ], [ 0, %.lr.ph ], [ %22, %8 ]
  ret i32 %.0.lcssa
}